target datalayout = "e-m:e-p270:32:32-p271:32:32-p272:64:64-i64:64-i128:128-f80:128-n8:16:32:64-S128"
target triple = "x86_64-pc-linux-gnu"

%struct.CType = type { i32, i32, i16, i16, %struct.GCRef }
%struct.GCRef = type { i64 }
%struct.CTState = type { ptr, i32, i32, ptr, ptr, ptr, %struct.CCallback, [128 x i16] }
%struct.CCallback = type { [8 x %union.FPRCBArg], [8 x i64], ptr, ptr, ptr, i32, i32, i32 }
%union.FPRCBArg = type { double }
%union.TValue = type { i64 }

; Function Attrs: alwaysinline nounwind uwtable
define internal ptr @ctype_child(ptr noundef %0, ptr noundef %1) #2 {
  %3 = alloca ptr, align 8
  %4 = alloca ptr, align 8
  store ptr %0, ptr %3, align 8, !tbaa !4
  store ptr %1, ptr %4, align 8, !tbaa !9
  %5 = load ptr, ptr %3, align 8, !tbaa !4
  %6 = load ptr, ptr %4, align 8, !tbaa !9
  %7 = getelementptr inbounds nuw %struct.CType, ptr %6, i32 0, i32 0
  %8 = load i32, ptr %7, align 8, !tbaa !13
  %9 = and i32 %8, 65535
  %10 = call ptr @ctype_get(ptr noundef %5, i32 noundef %9)
  ret ptr %10
}

; Function Attrs: alwaysinline nounwind uwtable
define internal i32 @ctype_check(ptr noundef %0, i32 noundef %1) #2 {
  %3 = alloca ptr, align 8
  %4 = alloca i32, align 4
  store ptr %0, ptr %3, align 8, !tbaa !4
  store i32 %1, ptr %4, align 4, !tbaa !11
  %5 = load i32, ptr %4, align 4, !tbaa !11
  ret i32 %5
}

; Function Attrs: alwaysinline nounwind uwtable
define internal ptr @ctype_rawchild(ptr noundef %0, ptr noundef %1) #2 {
  %3 = alloca ptr, align 8
  %4 = alloca ptr, align 8
  store ptr %0, ptr %3, align 8, !tbaa !4
  store ptr %1, ptr %4, align 8, !tbaa !9
  br label %5

5:                                                ; preds = %9, %2
  %6 = load ptr, ptr %3, align 8, !tbaa !4
  %7 = load ptr, ptr %4, align 8, !tbaa !9
  %8 = call ptr @ctype_child(ptr noundef %6, ptr noundef %7)
  store ptr %8, ptr %4, align 8, !tbaa !9
  br label %9

9:                                                ; preds = %5
  %10 = load ptr, ptr %4, align 8, !tbaa !9
  %11 = getelementptr inbounds nuw %struct.CType, ptr %10, i32 0, i32 0
  %12 = load i32, ptr %11, align 8, !tbaa !13
  %13 = lshr i32 %12, 28
  %14 = icmp eq i32 %13, 8
  br i1 %14, label %5, label %15, !llvm.loop !64

15:                                               ; preds = %9
  %16 = load ptr, ptr %4, align 8, !tbaa !9
  ret ptr %16
}

; Function Attrs: alwaysinline nounwind uwtable
define internal ptr @ctype_get(ptr noundef %0, i32 noundef %1) #2 {
  %3 = alloca ptr, align 8
  %4 = alloca i32, align 4
  store ptr %0, ptr %3, align 8, !tbaa !4
  store i32 %1, ptr %4, align 4, !tbaa !11
  %5 = load ptr, ptr %3, align 8, !tbaa !4
  %6 = getelementptr inbounds nuw %struct.CTState, ptr %5, i32 0, i32 0
  %7 = load ptr, ptr %6, align 8, !tbaa !42
  %8 = load ptr, ptr %3, align 8, !tbaa !4
  %9 = load i32, ptr %4, align 4, !tbaa !11
  %10 = call i32 @ctype_check(ptr noundef %8, i32 noundef %9)
  %11 = zext i32 %10 to i64
  %12 = getelementptr inbounds nuw %struct.CType, ptr %7, i64 %11
  ret ptr %12
}

; Function Attrs: nounwind uwtable
define internal void @cconv_substruct_init(ptr noundef %0, ptr noundef %1, ptr noundef %2, ptr noundef %3, i32 noundef %4, ptr noundef %5) #0 {
  %7 = alloca ptr, align 8
  %8 = alloca ptr, align 8
  %9 = alloca ptr, align 8
  %10 = alloca ptr, align 8
  %11 = alloca i32, align 4
  %12 = alloca ptr, align 8
  %13 = alloca i32, align 4
  %14 = alloca ptr, align 8
  %15 = alloca i32, align 4
  %16 = alloca i32, align 4
  store ptr %0, ptr %7, align 8, !tbaa !4
  store ptr %1, ptr %8, align 8, !tbaa !9
  store ptr %2, ptr %9, align 8, !tbaa !21
  store ptr %3, ptr %10, align 8, !tbaa !43
  store i32 %4, ptr %11, align 4, !tbaa !11
  store ptr %5, ptr %12, align 8, !tbaa !19
  call void @llvm.lifetime.start.p0(i64 4, ptr %13) #9
  %17 = load ptr, ptr %8, align 8, !tbaa !9
  %18 = getelementptr inbounds nuw %struct.CType, ptr %17, i32 0, i32 2
  %19 = load i16, ptr %18, align 8, !tbaa !84
  %20 = zext i16 %19 to i32
  store i32 %20, ptr %13, align 4, !tbaa !11
  br label %21

21:                                               ; preds = %137, %135, %6
  %22 = load i32, ptr %13, align 4, !tbaa !11
  %23 = icmp ne i32 %22, 0
  br i1 %23, label %24, label %138

24:                                               ; preds = %21
  call void @llvm.lifetime.start.p0(i64 8, ptr %14) #9
  %25 = load ptr, ptr %7, align 8, !tbaa !4
  %26 = load i32, ptr %13, align 4, !tbaa !11
  %27 = call ptr @ctype_get(ptr noundef %25, i32 noundef %26)
  store ptr %27, ptr %14, align 8, !tbaa !9
  %28 = load ptr, ptr %14, align 8, !tbaa !9
  %29 = getelementptr inbounds nuw %struct.CType, ptr %28, i32 0, i32 2
  %30 = load i16, ptr %29, align 8, !tbaa !84
  %31 = zext i16 %30 to i32
  store i32 %31, ptr %13, align 4, !tbaa !11
  %32 = load ptr, ptr %14, align 8, !tbaa !9
  %33 = getelementptr inbounds nuw %struct.CType, ptr %32, i32 0, i32 0
  %34 = load i32, ptr %33, align 8, !tbaa !13
  %35 = lshr i32 %34, 28
  %36 = icmp eq i32 %35, 9
  br i1 %36, label %43, label %37

37:                                               ; preds = %24
  %38 = load ptr, ptr %14, align 8, !tbaa !9
  %39 = getelementptr inbounds nuw %struct.CType, ptr %38, i32 0, i32 0
  %40 = load i32, ptr %39, align 8, !tbaa !13
  %41 = lshr i32 %40, 28
  %42 = icmp eq i32 %41, 10
  br i1 %42, label %43, label %106

43:                                               ; preds = %37, %24
  call void @llvm.lifetime.start.p0(i64 4, ptr %15) #9
  %44 = load ptr, ptr %12, align 8, !tbaa !19
  %45 = load i32, ptr %44, align 4, !tbaa !11
  store i32 %45, ptr %15, align 4, !tbaa !11
  %46 = load ptr, ptr %14, align 8, !tbaa !9
  %47 = getelementptr inbounds nuw %struct.CType, ptr %46, i32 0, i32 4
  %48 = getelementptr inbounds nuw %struct.GCRef, ptr %47, i32 0, i32 0
  %49 = load i64, ptr %48, align 8, !tbaa !85
  %50 = inttoptr i64 %49 to ptr
  %51 = icmp ne ptr %50, null
  br i1 %51, label %53, label %52

52:                                               ; preds = %43
  store i32 2, ptr %16, align 4
  br label %103, !llvm.loop !87

53:                                               ; preds = %43
  %54 = load i32, ptr %15, align 4, !tbaa !11
  %55 = load i32, ptr %11, align 4, !tbaa !11
  %56 = icmp uge i32 %54, %55
  br i1 %56, label %57, label %58

57:                                               ; preds = %53
  store i32 3, ptr %16, align 4
  br label %103

58:                                               ; preds = %53
  %59 = load i32, ptr %15, align 4, !tbaa !11
  %60 = add i32 %59, 1
  %61 = load ptr, ptr %12, align 8, !tbaa !19
  store i32 %60, ptr %61, align 4, !tbaa !11
  %62 = load ptr, ptr %14, align 8, !tbaa !9
  %63 = getelementptr inbounds nuw %struct.CType, ptr %62, i32 0, i32 0
  %64 = load i32, ptr %63, align 8, !tbaa !13
  %65 = lshr i32 %64, 28
  %66 = icmp eq i32 %65, 9
  br i1 %66, label %67, label %82

67:                                               ; preds = %58
  %68 = load ptr, ptr %7, align 8, !tbaa !4
  %69 = load ptr, ptr %7, align 8, !tbaa !4
  %70 = load ptr, ptr %14, align 8, !tbaa !9
  %71 = call ptr @ctype_rawchild(ptr noundef %69, ptr noundef %70)
  %72 = load ptr, ptr %9, align 8, !tbaa !21
  %73 = load ptr, ptr %14, align 8, !tbaa !9
  %74 = getelementptr inbounds nuw %struct.CType, ptr %73, i32 0, i32 1
  %75 = load i32, ptr %74, align 4, !tbaa !18
  %76 = zext i32 %75 to i64
  %77 = getelementptr inbounds nuw i8, ptr %72, i64 %76
  %78 = load ptr, ptr %10, align 8, !tbaa !43
  %79 = load i32, ptr %15, align 4, !tbaa !11
  %80 = zext i32 %79 to i64
  %81 = getelementptr inbounds nuw %union.TValue, ptr %78, i64 %80
  call void @lj_cconv_ct_tv(ptr noundef %68, ptr noundef %71, ptr noundef %77, ptr noundef %81, i32 noundef 0)
  br label %95

82:                                               ; preds = %58
  %83 = load ptr, ptr %7, align 8, !tbaa !4
  %84 = load ptr, ptr %14, align 8, !tbaa !9
  %85 = load ptr, ptr %9, align 8, !tbaa !21
  %86 = load ptr, ptr %14, align 8, !tbaa !9
  %87 = getelementptr inbounds nuw %struct.CType, ptr %86, i32 0, i32 1
  %88 = load i32, ptr %87, align 4, !tbaa !18
  %89 = zext i32 %88 to i64
  %90 = getelementptr inbounds nuw i8, ptr %85, i64 %89
  %91 = load ptr, ptr %10, align 8, !tbaa !43
  %92 = load i32, ptr %15, align 4, !tbaa !11
  %93 = zext i32 %92 to i64
  %94 = getelementptr inbounds nuw %union.TValue, ptr %91, i64 %93
  call void @lj_cconv_bf_tv(ptr noundef %83, ptr noundef %84, ptr noundef %90, ptr noundef %94)
  br label %95

95:                                               ; preds = %82, %67
  %96 = load ptr, ptr %8, align 8, !tbaa !9
  %97 = getelementptr inbounds nuw %struct.CType, ptr %96, i32 0, i32 0
  %98 = load i32, ptr %97, align 8, !tbaa !13
  %99 = and i32 %98, 8388608
  %100 = icmp ne i32 %99, 0
  br i1 %100, label %101, label %102

101:                                              ; preds = %95
  store i32 3, ptr %16, align 4
  br label %103

102:                                              ; preds = %95
  store i32 0, ptr %16, align 4
  br label %103

103:                                              ; preds = %102, %101, %57, %52
  call void @llvm.lifetime.end.p0(i64 4, ptr %15) #9
  %104 = load i32, ptr %16, align 4
  switch i32 %104, label %135 [
    i32 0, label %105
  ]

105:                                              ; preds = %103
  br label %134

106:                                              ; preds = %37
  %107 = load ptr, ptr %14, align 8, !tbaa !9
  %108 = getelementptr inbounds nuw %struct.CType, ptr %107, i32 0, i32 0
  %109 = load i32, ptr %108, align 8, !tbaa !13
  %110 = and i32 %109, -251723776
  %111 = icmp eq i32 %110, -2147287040
  br i1 %111, label %112, label %133

112:                                              ; preds = %106
  %113 = load ptr, ptr %7, align 8, !tbaa !4
  %114 = load ptr, ptr %7, align 8, !tbaa !4
  %115 = load ptr, ptr %14, align 8, !tbaa !9
  %116 = call ptr @ctype_rawchild(ptr noundef %114, ptr noundef %115)
  %117 = load ptr, ptr %9, align 8, !tbaa !21
  %118 = load ptr, ptr %14, align 8, !tbaa !9
  %119 = getelementptr inbounds nuw %struct.CType, ptr %118, i32 0, i32 1
  %120 = load i32, ptr %119, align 4, !tbaa !18
  %121 = zext i32 %120 to i64
  %122 = getelementptr inbounds nuw i8, ptr %117, i64 %121
  %123 = load ptr, ptr %10, align 8, !tbaa !43
  %124 = load i32, ptr %11, align 4, !tbaa !11
  %125 = load ptr, ptr %12, align 8, !tbaa !19
  call void @cconv_substruct_init(ptr noundef %113, ptr noundef %116, ptr noundef %122, ptr noundef %123, i32 noundef %124, ptr noundef %125)
  %126 = load ptr, ptr %8, align 8, !tbaa !9
  %127 = getelementptr inbounds nuw %struct.CType, ptr %126, i32 0, i32 0
  %128 = load i32, ptr %127, align 8, !tbaa !13
  %129 = and i32 %128, 8388608
  %130 = icmp ne i32 %129, 0
  br i1 %130, label %131, label %132

131:                                              ; preds = %112
  store i32 3, ptr %16, align 4
  br label %135

132:                                              ; preds = %112
  br label %133

133:                                              ; preds = %132, %106
  br label %134

134:                                              ; preds = %133, %105
  store i32 0, ptr %16, align 4
  br label %135

135:                                              ; preds = %134, %131, %103
  call void @llvm.lifetime.end.p0(i64 8, ptr %14) #9
  %136 = load i32, ptr %16, align 4
  switch i32 %136, label %139 [
    i32 0, label %137
    i32 2, label %21
    i32 3, label %138
  ]

137:                                              ; preds = %135
  br label %21, !llvm.loop !87

138:                                              ; preds = %135, %21
  call void @llvm.lifetime.end.p0(i64 4, ptr %13) #9
  ret void

139:                                              ; preds = %135
  unreachable
}