; Function Attrs: nounwind uwtable
define internal fastcc void @cconv_substruct_init(ptr noundef %0, ptr noundef readonly captures(none) %1, ptr noundef %2, ptr noundef %3, i32 noundef range(i32 1, 0) %4, ptr noundef nonnull captures(none) %5) unnamed_addr #2 {
  %7 = getelementptr inbounds nuw i8, ptr %1, i64 8
  %8 = load i16, ptr %7, align 8, !tbaa !67
  %.not61 = icmp eq i16 %8, 0
  br i1 %.not61, label %.thread52, label %.lr.ph

.critedge:                                        ; preds = %47, %16
  %.not.old.old = icmp eq i16 %13, 0
  br i1 %.not.old.old, label %.thread52, label %.lr.ph.backedge

.lr.ph.backedge:                                  ; preds = %.critedge, %44, %ctype_rawchild.exit
  br label %.lr.ph

.lr.ph:                                           ; preds = %6, %.lr.ph.backedge
  %.039.in62 = phi i16 [ %13, %.lr.ph.backedge ], [ %8, %6 ]
  %9 = load ptr, ptr %0, align 8, !tbaa !4
  %10 = zext i16 %.039.in62 to i64
  %11 = getelementptr inbounds nuw %struct.CType, ptr %9, i64 %10
  %12 = getelementptr inbounds nuw i8, ptr %11, i64 8
  %13 = load i16, ptr %12, align 8, !tbaa !67
  %14 = load i32, ptr %11, align 8, !tbaa !17
  %15 = lshr i32 %14, 28
  %.off = add nsw i32 %15, -9
  %switch47 = icmp ult i32 %.off, 2
  br i1 %switch47, label %16, label %47

16:                                               ; preds = %.lr.ph
  %17 = load i32, ptr %5, align 4, !tbaa !24
  %18 = getelementptr inbounds nuw i8, ptr %11, i64 16
  %19 = load i64, ptr %18, align 8, !tbaa !68
  %.not43 = icmp eq i64 %19, 0
  br i1 %.not43, label %.critedge, label %20, !llvm.loop !70

20:                                               ; preds = %16
  %.not44 = icmp ult i32 %17, %4
  br i1 %.not44, label %21, label %.thread52

21:                                               ; preds = %20
  %22 = add nuw i32 %17, 1
  store i32 %22, ptr %5, align 4, !tbaa !24
  %23 = load i32, ptr %11, align 8, !tbaa !17
  %.mask = and i32 %23, -268435456
  %24 = icmp eq i32 %.mask, -1879048192
  br i1 %24, label %.preheader, label %37

.preheader:                                       ; preds = %21, %.preheader
  %25 = phi i32 [ %29, %.preheader ], [ %23, %21 ]
  %26 = and i32 %25, 65535
  %27 = zext nneg i32 %26 to i64
  %28 = getelementptr inbounds nuw %struct.CType, ptr %9, i64 %27
  %29 = load i32, ptr %28, align 8, !tbaa !17
  %30 = icmp slt i32 %29, -1879048192
  br i1 %30, label %.preheader, label %ctype_rawchild.exit49, !llvm.loop !44

ctype_rawchild.exit49:                            ; preds = %.preheader
  %31 = getelementptr inbounds nuw i8, ptr %11, i64 4
  %32 = load i32, ptr %31, align 4, !tbaa !22
  %33 = zext i32 %32 to i64
  %34 = getelementptr inbounds nuw i8, ptr %2, i64 %33
  %35 = zext i32 %17 to i64
  %36 = getelementptr inbounds nuw %union.TValue, ptr %3, i64 %35
  tail call void @lj_cconv_ct_tv(ptr noundef nonnull %0, ptr noundef nonnull %28, ptr noundef %34, ptr noundef %36, i32 noundef 0)
  br label %44

37:                                               ; preds = %21
  %38 = getelementptr inbounds nuw i8, ptr %11, i64 4
  %39 = load i32, ptr %38, align 4, !tbaa !22
  %40 = zext i32 %39 to i64
  %41 = getelementptr inbounds nuw i8, ptr %2, i64 %40
  %42 = zext i32 %17 to i64
  %43 = getelementptr inbounds nuw %union.TValue, ptr %3, i64 %42
  tail call void @lj_cconv_bf_tv(ptr noundef nonnull %0, ptr noundef nonnull %11, ptr noundef %41, ptr noundef %43)
  br label %44

44:                                               ; preds = %ctype_rawchild.exit49, %37
  %45 = load i32, ptr %1, align 8, !tbaa !17
  %46 = and i32 %45, 8388608
  %.not45 = icmp ne i32 %46, 0
  %.not = icmp eq i16 %13, 0
  %or.cond = select i1 %.not45, i1 true, i1 %.not
  br i1 %or.cond, label %.thread52, label %.lr.ph.backedge

47:                                               ; preds = %.lr.ph
  %48 = and i32 %14, -251723776
  %49 = icmp eq i32 %48, -2147287040
  br i1 %49, label %.preheader59, label %.critedge

.preheader59:                                     ; preds = %47, %.preheader59
  %50 = phi i32 [ %54, %.preheader59 ], [ %14, %47 ]
  %51 = and i32 %50, 65535
  %52 = zext nneg i32 %51 to i64
  %53 = getelementptr inbounds nuw %struct.CType, ptr %9, i64 %52
  %54 = load i32, ptr %53, align 8, !tbaa !17
  %55 = icmp slt i32 %54, -1879048192
  br i1 %55, label %.preheader59, label %ctype_rawchild.exit, !llvm.loop !44

ctype_rawchild.exit:                              ; preds = %.preheader59
  %56 = getelementptr inbounds nuw i8, ptr %11, i64 4
  %57 = load i32, ptr %56, align 4, !tbaa !22
  %58 = zext i32 %57 to i64
  %59 = getelementptr inbounds nuw i8, ptr %2, i64 %58
  tail call fastcc void @cconv_substruct_init(ptr noundef nonnull %0, ptr noundef nonnull %53, ptr noundef %59, ptr noundef %3, i32 noundef %4, ptr noundef %5)
  %60 = load i32, ptr %1, align 8, !tbaa !17
  %61 = and i32 %60, 8388608
  %.not42 = icmp ne i32 %61, 0
  %.not.old = icmp eq i16 %13, 0
  %or.cond65 = select i1 %.not42, i1 true, i1 %.not.old
  br i1 %or.cond65, label %.thread52, label %.lr.ph.backedge

.thread52:                                        ; preds = %.critedge, %ctype_rawchild.exit, %20, %44, %6
  ret void
}